	.text
	.syntax unified
	.eabi_attribute	67, "2.09"	@ Tag_conformance
	.cpu	cortex-m4
	.eabi_attribute	6, 13	@ Tag_CPU_arch
	.eabi_attribute	7, 77	@ Tag_CPU_arch_profile
	.eabi_attribute	8, 0	@ Tag_ARM_ISA_use
	.eabi_attribute	9, 2	@ Tag_THUMB_ISA_use
	.fpu	fpv4-sp-d16
	.eabi_attribute	27, 1	@ Tag_ABI_HardFP_use
	.eabi_attribute	36, 1	@ Tag_FP_HP_extension
	.eabi_attribute	34, 1	@ Tag_CPU_unaligned_access
	.eabi_attribute	17, 1	@ Tag_ABI_PCS_GOT_use
	.eabi_attribute	20, 2	@ Tag_ABI_FP_denormal
	.eabi_attribute	21, 0	@ Tag_ABI_FP_exceptions
	.eabi_attribute	23, 1	@ Tag_ABI_FP_number_model
	.eabi_attribute	24, 1	@ Tag_ABI_align_needed
	.eabi_attribute	25, 1	@ Tag_ABI_align_preserved
	.eabi_attribute	28, 1	@ Tag_ABI_VFP_args
	.eabi_attribute	38, 1	@ Tag_ABI_FP_16bit_format
	.eabi_attribute	18, 2	@ Tag_ABI_PCS_wchar_t
	.eabi_attribute	26, 1	@ Tag_ABI_enum_size
	.eabi_attribute	14, 0	@ Tag_ABI_PCS_R9_use
	.file	"main.c"
	.section	.text.main,"ax",%progbits
	.hidden	main                            @ -- Begin function main
	.globl	main
	.p2align	2
	.type	main,%function
	.code	16                              @ @main
	.thumb_func
main:
.Lfunc_begin0:
	.file	1 "C:\\Users\\munad\\Documents\\Work\\Learning\\Classes\\EmbeddedSystemsProgramming\\lesson-09\\tm4c123-keil" "main.c"
	.loc	1 10 0                          @ main.c:10:0
	.fnstart
	.cfi_sections .debug_frame
	.cfi_startproc
@ %bb.0:
	.save	{r7, lr}
	push	{r7, lr}
	.cfi_def_cfa_offset 8
	.cfi_offset lr, -4
	.cfi_offset r7, -8
	.pad	#16
	sub	sp, #16
	.cfi_def_cfa_offset 24
	movs	r0, #0
	str	r0, [sp, #4]                    @ 4-byte Spill
	str	r0, [sp, #12]
.Ltmp0:
	.loc	1 13 9 prologue_end             @ main.c:13:9
	bl	fact
	.loc	1 13 7 is_stmt 0                @ main.c:13:7
	str	r0, [sp, #8]
	movs	r0, #1
	.loc	1 14 17 is_stmt 1               @ main.c:14:17
	bl	fact
	.loc	1 14 16 is_stmt 0               @ main.c:14:16
	add.w	r0, r0, r0, lsl #1
	.loc	1 14 12                         @ main.c:14:12
	adds	r0, #2
	.loc	1 14 7                          @ main.c:14:7
	str	r0, [sp, #8]
	movs	r0, #5
	.loc	1 15 11 is_stmt 1               @ main.c:15:11
	bl	fact
                                        @ kill: def $r1 killed $r0
	ldr	r0, [sp, #4]                    @ 4-byte Reload
	movw	r2, #57452
	movt	r2, #16399
	.loc	1 18 24                         @ main.c:18:24
	ldr	r1, [r2]
	orr	r1, r1, #32
	str	r1, [r2]
	movw	r2, #58888
	movt	r2, #16399
	.loc	1 19 23                         @ main.c:19:23
	ldr	r1, [r2]
	orr	r1, r1, #32
	str	r1, [r2]
	movw	r2, #54272
	movt	r2, #16389
	.loc	1 21 26                         @ main.c:21:26
	ldr	r1, [r2]
	orr	r1, r1, #14
	str	r1, [r2]
	movw	r2, #54556
	movt	r2, #16389
	.loc	1 22 26                         @ main.c:22:26
	ldr	r1, [r2]
	orr	r1, r1, #14
	str	r1, [r2]
	movw	r1, #53304
	movt	r1, #16389
	.loc	1 25 64                         @ main.c:25:64
	str	r0, [r1]
	movw	r1, #53264
	movt	r1, #16389
	movs	r0, #4
	.loc	1 27 42                         @ main.c:27:42
	str	r0, [r1]
	.loc	1 28 5                          @ main.c:28:5
	b	.LBB0_1
.LBB0_1:                                @ =>This Inner Loop Header: Depth=1
	.loc	1 0 5 is_stmt 0                 @ main.c:0:5
	movw	r1, #53256
	movt	r1, #16389
	str	r1, [sp]                        @ 4-byte Spill
	movs	r0, #2
.Ltmp1:
	.loc	1 29 45 is_stmt 1               @ main.c:29:45
	str	r0, [r1]
	movw	r0, #16960
	movt	r0, #15
	.loc	1 31 9                          @ main.c:31:9
	bl	delay
	ldr	r1, [sp]                        @ 4-byte Reload
	movs	r0, #0
	.loc	1 33 45                         @ main.c:33:45
	str	r0, [r1]
	movw	r0, #41248
	movt	r0, #7
	.loc	1 35 9                          @ main.c:35:9
	bl	delay
.Ltmp2:
	.loc	1 28 5                          @ main.c:28:5
	b	.LBB0_1
.Ltmp3:
.Lfunc_end0:
	.size	main, .Lfunc_end0-main
	.cfi_endproc
	.cantunwind
	.fnend
                                        @ -- End function
	.section	.text.fact,"ax",%progbits
	.hidden	fact                            @ -- Begin function fact
	.globl	fact
	.p2align	2
	.type	fact,%function
	.code	16                              @ @fact
	.thumb_func
fact:
.Lfunc_begin1:
	.loc	1 40 0                          @ main.c:40:0
	.fnstart
	.cfi_startproc
@ %bb.0:
	.save	{r7, lr}
	push	{r7, lr}
	.cfi_def_cfa_offset 8
	.cfi_offset lr, -4
	.cfi_offset r7, -8
	.pad	#16
	sub	sp, #16
	.cfi_def_cfa_offset 24
	str	r0, [sp, #8]
.Ltmp4:
	.loc	1 45 9 prologue_end             @ main.c:45:9
	ldr	r0, [sp, #8]
.Ltmp5:
	.loc	1 45 9 is_stmt 0                @ main.c:45:9
	cbnz	r0, .LBB1_2
	b	.LBB1_1
.LBB1_1:
	.loc	1 0 9                           @ main.c:0:9
	movs	r0, #1
.Ltmp6:
	.loc	1 46 9 is_stmt 1                @ main.c:46:9
	str	r0, [sp, #12]
	b	.LBB1_3
.Ltmp7:
.LBB1_2:
	.loc	1 49 16                         @ main.c:49:16
	ldr	r0, [sp, #8]
	.loc	1 49 27 is_stmt 0               @ main.c:49:27
	str	r0, [sp, #4]                    @ 4-byte Spill
	subs	r0, #1
	.loc	1 49 20                         @ main.c:49:20
	bl	fact
	mov	r1, r0
	.loc	1 49 18                         @ main.c:49:18
	ldr	r0, [sp, #4]                    @ 4-byte Reload
	muls	r0, r1, r0
	.loc	1 49 9                          @ main.c:49:9
	str	r0, [sp, #12]
	b	.LBB1_3
.Ltmp8:
.LBB1_3:
	.loc	1 51 1 is_stmt 1                @ main.c:51:1
	ldr	r0, [sp, #12]
	.loc	1 51 1 epilogue_begin is_stmt 0 @ main.c:51:1
	add	sp, #16
	pop	{r7, pc}
.Ltmp9:
.Lfunc_end1:
	.size	fact, .Lfunc_end1-fact
	.cfi_endproc
	.cantunwind
	.fnend
                                        @ -- End function
	.type	__ARM_use_no_argv,%object       @ @__ARM_use_no_argv
	.section	.ARM.use_no_argv,"awR",%progbits,unique,1
	.globl	__ARM_use_no_argv
	.p2align	2, 0x0
__ARM_use_no_argv:
	.long	1                               @ 0x1
	.size	__ARM_use_no_argv, 4

	.section	".note.GNU-stack","",%progbits
	.eabi_attribute	30, 6	@ Tag_ABI_optimization_goals
	.ARM_attribute	16, 1	@ Tag_AV_eba