	.text
	.syntax unified
	.eabi_attribute	67, "2.09"	@ Tag_conformance
	.cpu	cortex-m4
	.eabi_attribute	6, 13	@ Tag_CPU_arch
	.eabi_attribute	7, 77	@ Tag_CPU_arch_profile
	.eabi_attribute	8, 0	@ Tag_ARM_ISA_use
	.eabi_attribute	9, 2	@ Tag_THUMB_ISA_use
	.fpu	fpv4-sp-d16
	.eabi_attribute	27, 1	@ Tag_ABI_HardFP_use
	.eabi_attribute	36, 1	@ Tag_FP_HP_extension
	.eabi_attribute	34, 1	@ Tag_CPU_unaligned_access
	.eabi_attribute	17, 1	@ Tag_ABI_PCS_GOT_use
	.eabi_attribute	20, 2	@ Tag_ABI_FP_denormal
	.eabi_attribute	21, 0	@ Tag_ABI_FP_exceptions
	.eabi_attribute	23, 1	@ Tag_ABI_FP_number_model
	.eabi_attribute	24, 1	@ Tag_ABI_align_needed
	.eabi_attribute	25, 1	@ Tag_ABI_align_preserved
	.eabi_attribute	28, 1	@ Tag_ABI_VFP_args
	.eabi_attribute	38, 1	@ Tag_ABI_FP_16bit_format
	.eabi_attribute	18, 2	@ Tag_ABI_PCS_wchar_t
	.eabi_attribute	26, 1	@ Tag_ABI_enum_size
	.eabi_attribute	14, 0	@ Tag_ABI_PCS_R9_use
	.file	"system_TM4C123.c"
	.file	1 "C:\\Users\\munad" "AppData\\Local\\Keil_v5\\ARM\\ARMCLANG\\bin\\..\\include\\stdint.h"
	.file	2 "C:\\Users\\munad\\Documents\\Work\\Learning\\Classes\\EmbeddedSystemsProgramming\\lesson-09\\tm4c123-keil" "RTE/Device/TM4C123GH6PM/system_TM4C123.c"
	.file	3 "C:/Users/munad/AppData/Local/Arm/Packs/Keil/TM4C_DFP/1.1.0/Device/Include/TM4C123" "TM4C123GH6PM.h"
	.file	4 "C:/Users/munad/AppData/Local/Arm/Packs/ARM/CMSIS/6.1.0/CMSIS/Core/Include" "core_cm4.h"
	.section	.text.SystemCoreClockUpdate,"ax",%progbits
	.hidden	SystemCoreClockUpdate           @ -- Begin function SystemCoreClockUpdate
	.globl	SystemCoreClockUpdate
	.p2align	2
	.type	SystemCoreClockUpdate,%function
	.code	16                              @ @SystemCoreClockUpdate
	.thumb_func
SystemCoreClockUpdate:
.Lfunc_begin0:
	.loc	2 523 0                         @ RTE/Device/TM4C123GH6PM/system_TM4C123.c:523:0
	.fnstart
	.cfi_sections .debug_frame
	.cfi_startproc
@ %bb.0:
	.save	{r7, lr}
	push	{r7, lr}
	.cfi_def_cfa_offset 8
	.cfi_offset lr, -4
	.cfi_offset r7, -8
	.pad	#8
	sub	sp, #8
	.cfi_def_cfa_offset 16
	movw	r0, #57440
	movt	r0, #16399
.Ltmp0:
	.loc	2 527 20 prologue_end           @ RTE/Device/TM4C123GH6PM/system_TM4C123.c:527:20
	ldr	r0, [r0]
	.loc	2 527 10 is_stmt 0              @ RTE/Device/TM4C123GH6PM/system_TM4C123.c:527:10
	str	r0, [sp, #4]
	movw	r0, #57456
	movt	r0, #16399
	.loc	2 528 20 is_stmt 1              @ RTE/Device/TM4C123GH6PM/system_TM4C123.c:528:20
	ldr	r0, [r0]
	.loc	2 528 10 is_stmt 0              @ RTE/Device/TM4C123GH6PM/system_TM4C123.c:528:10
	str	r0, [sp]
	.loc	2 531 9 is_stmt 1               @ RTE/Device/TM4C123GH6PM/system_TM4C123.c:531:9
	ldrb.w	r0, [sp, #3]
	lsls	r0, r0, #24
	cmp	r0, #0
	bpl	.LBB0_10
	b	.LBB0_1
.LBB0_1:
.Ltmp1:
	.loc	2 533 11                        @ RTE/Device/TM4C123GH6PM/system_TM4C123.c:533:11
	ldrb.w	r0, [sp, #1]
	lsls	r0, r0, #28
	cmp	r0, #0
	bpl	.LBB0_3
	b	.LBB0_2
.LBB0_2:
.Ltmp2:
	.loc	2 534 40                        @ RTE/Device/TM4C123GH6PM/system_TM4C123.c:534:40
	ldr	r0, [sp, #4]
	.loc	2 534 48 is_stmt 0              @ RTE/Device/TM4C123GH6PM/system_TM4C123.c:534:48
	ubfx	r0, r0, #6, #4
	.loc	2 534 58                        @ RTE/Device/TM4C123GH6PM/system_TM4C123.c:534:58
	ldr	r1, [sp]
	.loc	2 534 67                        @ RTE/Device/TM4C123GH6PM/system_TM4C123.c:534:67
	ubfx	r1, r1, #4, #3
	.loc	2 534 27                        @ RTE/Device/TM4C123GH6PM/system_TM4C123.c:534:27
	bl	getOscClk
	.loc	2 534 25                        @ RTE/Device/TM4C123GH6PM/system_TM4C123.c:534:25
	movw	r1, :lower16:SystemCoreClock
	movt	r1, :upper16:SystemCoreClock
	str	r0, [r1]
	.loc	2 535 7 is_stmt 1               @ RTE/Device/TM4C123GH6PM/system_TM4C123.c:535:7
	b	.LBB0_4
.Ltmp3:
.LBB0_3:
	.loc	2 536 25                        @ RTE/Device/TM4C123GH6PM/system_TM4C123.c:536:25
	movw	r1, :lower16:SystemCoreClock
	movt	r1, :upper16:SystemCoreClock
	movw	r0, #33792
	movt	r0, #6103
	str	r0, [r1]
	b	.LBB0_4
.Ltmp4:
.LBB0_4:
	.loc	2 538 11                        @ RTE/Device/TM4C123GH6PM/system_TM4C123.c:538:11
	ldrb.w	r0, [sp, #6]
	lsls	r0, r0, #25
	cmp	r0, #0
	bpl	.LBB0_9
	b	.LBB0_5
.LBB0_5:
.Ltmp5:
	.loc	2 539 13                        @ RTE/Device/TM4C123GH6PM/system_TM4C123.c:539:13
	ldrb.w	r0, [sp, #1]
	lsls	r0, r0, #28
	cmp	r0, #0
	bpl	.LBB0_7
	b	.LBB0_6
.LBB0_6:
.Ltmp6:
	.loc	2 540 29                        @ RTE/Device/TM4C123GH6PM/system_TM4C123.c:540:29
	movw	r1, :lower16:SystemCoreClock
	movt	r1, :upper16:SystemCoreClock
	ldr	r0, [r1]
	.loc	2 540 50 is_stmt 0              @ RTE/Device/TM4C123GH6PM/system_TM4C123.c:540:50
	ldr	r2, [sp]
	.loc	2 540 60                        @ RTE/Device/TM4C123GH6PM/system_TM4C123.c:540:60
	ubfx	r2, r2, #23, #6
	.loc	2 540 70                        @ RTE/Device/TM4C123GH6PM/system_TM4C123.c:540:70
	adds	r2, #1
	.loc	2 540 45                        @ RTE/Device/TM4C123GH6PM/system_TM4C123.c:540:45
	udiv	r0, r0, r2
	.loc	2 540 27                        @ RTE/Device/TM4C123GH6PM/system_TM4C123.c:540:27
	str	r0, [r1]
	.loc	2 541 9 is_stmt 1               @ RTE/Device/TM4C123GH6PM/system_TM4C123.c:541:9
	b	.LBB0_8
.Ltmp7:
.LBB0_7:
	.loc	2 542 29                        @ RTE/Device/TM4C123GH6PM/system_TM4C123.c:542:29
	movw	r1, :lower16:SystemCoreClock
	movt	r1, :upper16:SystemCoreClock
	ldr	r0, [r1]
	.loc	2 542 50 is_stmt 0              @ RTE/Device/TM4C123GH6PM/system_TM4C123.c:542:50
	ldr	r2, [sp]
	.loc	2 542 60                        @ RTE/Device/TM4C123GH6PM/system_TM4C123.c:542:60
	ubfx	r2, r2, #23, #6
	.loc	2 542 70                        @ RTE/Device/TM4C123GH6PM/system_TM4C123.c:542:70
	adds	r2, #1
	.loc	2 542 45                        @ RTE/Device/TM4C123GH6PM/system_TM4C123.c:542:45
	udiv	r0, r0, r2
	.loc	2 542 75                        @ RTE/Device/TM4C123GH6PM/system_TM4C123.c:542:75
	lsrs	r0, r0, #1
	.loc	2 542 27                        @ RTE/Device/TM4C123GH6PM/system_TM4C123.c:542:27
	str	r0, [r1]
	b	.LBB0_8
.Ltmp8:
.LBB0_8:
	.loc	2 544 7 is_stmt 1               @ RTE/Device/TM4C123GH6PM/system_TM4C123.c:544:7
	b	.LBB0_9
.Ltmp9:
.LBB0_9:
	.loc	2 545 5                         @ RTE/Device/TM4C123GH6PM/system_TM4C123.c:545:5
	b	.LBB0_19
.Ltmp10:
.LBB0_10:
	.loc	2 547 11                        @ RTE/Device/TM4C123GH6PM/system_TM4C123.c:547:11
	ldrb.w	r0, [sp, #5]
	lsls	r0, r0, #28
	cmp	r0, #0
	bpl	.LBB0_12
	b	.LBB0_11
.LBB0_11:
.Ltmp11:
	.loc	2 548 40                        @ RTE/Device/TM4C123GH6PM/system_TM4C123.c:548:40
	ldr	r1, [sp, #4]
	.loc	2 548 48 is_stmt 0              @ RTE/Device/TM4C123GH6PM/system_TM4C123.c:548:48
	ubfx	r0, r1, #6, #5
	.loc	2 548 66                        @ RTE/Device/TM4C123GH6PM/system_TM4C123.c:548:66
	ubfx	r1, r1, #4, #2
	.loc	2 548 27                        @ RTE/Device/TM4C123GH6PM/system_TM4C123.c:548:27
	bl	getOscClk
	.loc	2 548 25                        @ RTE/Device/TM4C123GH6PM/system_TM4C123.c:548:25
	movw	r1, :lower16:SystemCoreClock
	movt	r1, :upper16:SystemCoreClock
	str	r0, [r1]
	.loc	2 549 7 is_stmt 1               @ RTE/Device/TM4C123GH6PM/system_TM4C123.c:549:7
	b	.LBB0_13
.Ltmp12:
.LBB0_12:
	.loc	2 550 25                        @ RTE/Device/TM4C123GH6PM/system_TM4C123.c:550:25
	movw	r1, :lower16:SystemCoreClock
	movt	r1, :upper16:SystemCoreClock
	movw	r0, #33792
	movt	r0, #6103
	str	r0, [r1]
	b	.LBB0_13
.Ltmp13:
.LBB0_13:
	.loc	2 553 11                        @ RTE/Device/TM4C123GH6PM/system_TM4C123.c:553:11
	ldrb.w	r0, [sp, #6]
	lsls	r0, r0, #25
	cmp	r0, #0
	bpl	.LBB0_18
	b	.LBB0_14
.LBB0_14:
.Ltmp14:
	.loc	2 555 13                        @ RTE/Device/TM4C123GH6PM/system_TM4C123.c:555:13
	ldrb.w	r0, [sp, #5]
	lsls	r0, r0, #28
	cmp	r0, #0
	bpl	.LBB0_16
	b	.LBB0_15
.LBB0_15:
.Ltmp15:
	.loc	2 557 29                        @ RTE/Device/TM4C123GH6PM/system_TM4C123.c:557:29
	movw	r1, :lower16:SystemCoreClock
	movt	r1, :upper16:SystemCoreClock
	ldr	r0, [r1]
	.loc	2 557 50 is_stmt 0              @ RTE/Device/TM4C123GH6PM/system_TM4C123.c:557:50
	ldr	r2, [sp, #4]
	.loc	2 557 59                        @ RTE/Device/TM4C123GH6PM/system_TM4C123.c:557:59
	ubfx	r2, r2, #23, #4
	.loc	2 557 69                        @ RTE/Device/TM4C123GH6PM/system_TM4C123.c:557:69
	adds	r2, #1
	.loc	2 557 45                        @ RTE/Device/TM4C123GH6PM/system_TM4C123.c:557:45
	udiv	r0, r0, r2
	.loc	2 557 27                        @ RTE/Device/TM4C123GH6PM/system_TM4C123.c:557:27
	str	r0, [r1]
	.loc	2 558 9 is_stmt 1               @ RTE/Device/TM4C123GH6PM/system_TM4C123.c:558:9
	b	.LBB0_17
.Ltmp16:
.LBB0_16:
	.loc	2 559 29                        @ RTE/Device/TM4C123GH6PM/system_TM4C123.c:559:29
	movw	r1, :lower16:SystemCoreClock
	movt	r1, :upper16:SystemCoreClock
	ldr	r0, [r1]
	.loc	2 559 50 is_stmt 0              @ RTE/Device/TM4C123GH6PM/system_TM4C123.c:559:50
	ldr	r2, [sp, #4]
	.loc	2 559 59                        @ RTE/Device/TM4C123GH6PM/system_TM4C123.c:559:59
	ubfx	r2, r2, #23, #4
	.loc	2 559 69                        @ RTE/Device/TM4C123GH6PM/system_TM4C123.c:559:69
	adds	r2, #1
	.loc	2 559 45                        @ RTE/Device/TM4C123GH6PM/system_TM4C123.c:559:45
	udiv	r0, r0, r2
	.loc	2 559 74                        @ RTE/Device/TM4C123GH6PM/system_TM4C123.c:559:74
	lsrs	r0, r0, #1
	.loc	2 559 27                        @ RTE/Device/TM4C123GH6PM/system_TM4C123.c:559:27
	str	r0, [r1]
	b	.LBB0_17
.Ltmp17:
.LBB0_17:
	.loc	2 561 7 is_stmt 1               @ RTE/Device/TM4C123GH6PM/system_TM4C123.c:561:7
	b	.LBB0_18
.Ltmp18:
.LBB0_18:
	.loc	2 0 7 is_stmt 0                 @ RTE/Device/TM4C123GH6PM/system_TM4C123.c:0:7
	b	.LBB0_19
.LBB0_19:
	.loc	2 563 1 epilogue_begin is_stmt 1 @ RTE/Device/TM4C123GH6PM/system_TM4C123.c:563:1
	add	sp, #8
	pop	{r7, pc}
.Ltmp19:
.Lfunc_end0:
	.size	SystemCoreClockUpdate, .Lfunc_end0-SystemCoreClockUpdate
	.cfi_endproc
	.cantunwind
	.fnend
                                        @ -- End function
	.section	.text.getOscClk,"ax",%progbits
	.p2align	2                               @ -- Begin function getOscClk
	.type	getOscClk,%function
	.code	16                              @ @getOscClk
	.thumb_func
getOscClk:
.Lfunc_begin1:
	.loc	2 431 0                         @ RTE/Device/TM4C123GH6PM/system_TM4C123.c:431:0
	.fnstart
	.cfi_startproc
@ %bb.0:
	.pad	#20
	sub	sp, #20
	.cfi_def_cfa_offset 20
	str	r0, [sp, #16]
	str	r1, [sp, #12]
	movw	r0, #9216
	movt	r0, #244
.Ltmp20:
	.loc	2 432 12 prologue_end           @ RTE/Device/TM4C123GH6PM/system_TM4C123.c:432:12
	str	r0, [sp, #8]
	.loc	2 434 11                        @ RTE/Device/TM4C123GH6PM/system_TM4C123.c:434:11
	ldr	r0, [sp, #12]
	.loc	2 434 3 is_stmt 0               @ RTE/Device/TM4C123GH6PM/system_TM4C123.c:434:3
	str	r0, [sp, #4]                    @ 4-byte Spill
	cmp	r0, #3
	bhi.w	.LBB1_33
@ %bb.1:
	ldr	r1, [sp, #4]                    @ 4-byte Reload
.LCPI1_0:
	tbb	[pc, r1]
@ %bb.2:
	.loc	2 0 3                           @ RTE/Device/TM4C123GH6PM/system_TM4C123.c:0:3
.LJTI1_0:
	.byte	(.LBB1_3-(.LCPI1_0+4))/2
	.byte	(.LBB1_30-(.LCPI1_0+4))/2
	.byte	(.LBB1_31-(.LCPI1_0+4))/2
	.byte	(.LBB1_32-(.LCPI1_0+4))/2
	.p2align	1
.LBB1_3:
.Ltmp21:
	.loc	2 436 15 is_stmt 1              @ RTE/Device/TM4C123GH6PM/system_TM4C123.c:436:15
	ldr	r0, [sp, #16]
	.loc	2 436 7 is_stmt 0               @ RTE/Device/TM4C123GH6PM/system_TM4C123.c:436:7
	str	r0, [sp]                        @ 4-byte Spill
	cmp	r0, #22
	bhi.w	.LBB1_29
@ %bb.4:
	ldr	r1, [sp]                        @ 4-byte Reload
.LCPI1_1:
	tbb	[pc, r1]
@ %bb.5:
	.loc	2 0 7                           @ RTE/Device/TM4C123GH6PM/system_TM4C123.c:0:7
.LJTI1_1:
	.byte	(.LBB1_6-(.LCPI1_1+4))/2
	.byte	(.LBB1_7-(.LCPI1_1+4))/2
	.byte	(.LBB1_8-(.LCPI1_1+4))/2
	.byte	(.LBB1_9-(.LCPI1_1+4))/2
	.byte	(.LBB1_10-(.LCPI1_1+4))/2
	.byte	(.LBB1_11-(.LCPI1_1+4))/2
	.byte	(.LBB1_12-(.LCPI1_1+4))/2
	.byte	(.LBB1_13-(.LCPI1_1+4))/2
	.byte	(.LBB1_14-(.LCPI1_1+4))/2
	.byte	(.LBB1_15-(.LCPI1_1+4))/2
	.byte	(.LBB1_16-(.LCPI1_1+4))/2
	.byte	(.LBB1_17-(.LCPI1_1+4))/2
	.byte	(.LBB1_18-(.LCPI1_1+4))/2
	.byte	(.LBB1_19-(.LCPI1_1+4))/2
	.byte	(.LBB1_20-(.LCPI1_1+4))/2
	.byte	(.LBB1_21-(.LCPI1_1+4))/2
	.byte	(.LBB1_22-(.LCPI1_1+4))/2
	.byte	(.LBB1_23-(.LCPI1_1+4))/2
	.byte	(.LBB1_24-(.LCPI1_1+4))/2
	.byte	(.LBB1_25-(.LCPI1_1+4))/2
	.byte	(.LBB1_26-(.LCPI1_1+4))/2
	.byte	(.LBB1_27-(.LCPI1_1+4))/2
	.byte	(.LBB1_28-(.LCPI1_1+4))/2
	.p2align	1
.LBB1_6:
	movw	r0, #16960
	movt	r0, #15
.Ltmp22:
	.loc	2 438 18 is_stmt 1              @ RTE/Device/TM4C123GH6PM/system_TM4C123.c:438:18
	str	r0, [sp, #8]
	.loc	2 439 11                        @ RTE/Device/TM4C123GH6PM/system_TM4C123.c:439:11
	b	.LBB1_29
.LBB1_7:
	.loc	2 0 11 is_stmt 0                @ RTE/Device/TM4C123GH6PM/system_TM4C123.c:0:11
	mov.w	r0, #1843200
	.loc	2 441 18 is_stmt 1              @ RTE/Device/TM4C123GH6PM/system_TM4C123.c:441:18
	str	r0, [sp, #8]
	.loc	2 442 11                        @ RTE/Device/TM4C123GH6PM/system_TM4C123.c:442:11
	b	.LBB1_29
.LBB1_8:
	.loc	2 0 11 is_stmt 0                @ RTE/Device/TM4C123GH6PM/system_TM4C123.c:0:11
	movw	r0, #33920
	movt	r0, #30
	.loc	2 444 18 is_stmt 1              @ RTE/Device/TM4C123GH6PM/system_TM4C123.c:444:18
	str	r0, [sp, #8]
	.loc	2 445 11                        @ RTE/Device/TM4C123GH6PM/system_TM4C123.c:445:11
	b	.LBB1_29
.LBB1_9:
	.loc	2 0 11 is_stmt 0                @ RTE/Device/TM4C123GH6PM/system_TM4C123.c:0:11
	mov.w	r0, #2457600
	.loc	2 447 18 is_stmt 1              @ RTE/Device/TM4C123GH6PM/system_TM4C123.c:447:18
	str	r0, [sp, #8]
	.loc	2 448 11                        @ RTE/Device/TM4C123GH6PM/system_TM4C123.c:448:11
	b	.LBB1_29
.LBB1_10:
	.loc	2 0 11 is_stmt 0                @ RTE/Device/TM4C123GH6PM/system_TM4C123.c:0:11
	movw	r0, #40601
	movt	r0, #54
	.loc	2 450 18 is_stmt 1              @ RTE/Device/TM4C123GH6PM/system_TM4C123.c:450:18
	str	r0, [sp, #8]
	.loc	2 451 11                        @ RTE/Device/TM4C123GH6PM/system_TM4C123.c:451:11
	b	.LBB1_29
.LBB1_11:
	.loc	2 0 11 is_stmt 0                @ RTE/Device/TM4C123GH6PM/system_TM4C123.c:0:11
	mov.w	r0, #3686400
	.loc	2 453 18 is_stmt 1              @ RTE/Device/TM4C123GH6PM/system_TM4C123.c:453:18
	str	r0, [sp, #8]
	.loc	2 454 11                        @ RTE/Device/TM4C123GH6PM/system_TM4C123.c:454:11
	b	.LBB1_29
.LBB1_12:
	.loc	2 0 11 is_stmt 0                @ RTE/Device/TM4C123GH6PM/system_TM4C123.c:0:11
	movw	r0, #2304
	movt	r0, #61
	.loc	2 456 18 is_stmt 1              @ RTE/Device/TM4C123GH6PM/system_TM4C123.c:456:18
	str	r0, [sp, #8]
	.loc	2 457 11                        @ RTE/Device/TM4C123GH6PM/system_TM4C123.c:457:11
	b	.LBB1_29
.LBB1_13:
	.loc	2 0 11 is_stmt 0                @ RTE/Device/TM4C123GH6PM/system_TM4C123.c:0:11
	mov.w	r0, #4096000
	.loc	2 459 18 is_stmt 1              @ RTE/Device/TM4C123GH6PM/system_TM4C123.c:459:18
	str	r0, [sp, #8]
	.loc	2 460 11                        @ RTE/Device/TM4C123GH6PM/system_TM4C123.c:460:11
	b	.LBB1_29
.LBB1_14:
	.loc	2 0 11 is_stmt 0                @ RTE/Device/TM4C123GH6PM/system_TM4C123.c:0:11
	mov.w	r0, #4915200
	.loc	2 462 18 is_stmt 1              @ RTE/Device/TM4C123GH6PM/system_TM4C123.c:462:18
	str	r0, [sp, #8]
	.loc	2 463 11                        @ RTE/Device/TM4C123GH6PM/system_TM4C123.c:463:11
	b	.LBB1_29
.LBB1_15:
	.loc	2 0 11 is_stmt 0                @ RTE/Device/TM4C123GH6PM/system_TM4C123.c:0:11
	movw	r0, #19264
	movt	r0, #76
	.loc	2 465 18 is_stmt 1              @ RTE/Device/TM4C123GH6PM/system_TM4C123.c:465:18
	str	r0, [sp, #8]
	.loc	2 466 11                        @ RTE/Device/TM4C123GH6PM/system_TM4C123.c:466:11
	b	.LBB1_29
.LBB1_16:
	.loc	2 0 11 is_stmt 0                @ RTE/Device/TM4C123GH6PM/system_TM4C123.c:0:11
	movw	r0, #8192
	movt	r0, #78
	.loc	2 468 18 is_stmt 1              @ RTE/Device/TM4C123GH6PM/system_TM4C123.c:468:18
	str	r0, [sp, #8]
	.loc	2 469 11                        @ RTE/Device/TM4C123GH6PM/system_TM4C123.c:469:11
	b	.LBB1_29
.LBB1_17:
	.loc	2 0 11 is_stmt 0                @ RTE/Device/TM4C123GH6PM/system_TM4C123.c:0:11
	movw	r0, #36224
	movt	r0, #91
	.loc	2 471 18 is_stmt 1              @ RTE/Device/TM4C123GH6PM/system_TM4C123.c:471:18
	str	r0, [sp, #8]
	.loc	2 472 11                        @ RTE/Device/TM4C123GH6PM/system_TM4C123.c:472:11
	b	.LBB1_29
.LBB1_18:
	.loc	2 0 11 is_stmt 0                @ RTE/Device/TM4C123GH6PM/system_TM4C123.c:0:11
	movw	r0, #49152
	movt	r0, #93
	.loc	2 474 18 is_stmt 1              @ RTE/Device/TM4C123GH6PM/system_TM4C123.c:474:18
	str	r0, [sp, #8]
	.loc	2 475 11                        @ RTE/Device/TM4C123GH6PM/system_TM4C123.c:475:11
	b	.LBB1_29
.LBB1_19:
	.loc	2 0 11 is_stmt 0                @ RTE/Device/TM4C123GH6PM/system_TM4C123.c:0:11
	mov.w	r0, #7372800
	.loc	2 477 18 is_stmt 1              @ RTE/Device/TM4C123GH6PM/system_TM4C123.c:477:18
	str	r0, [sp, #8]
	.loc	2 478 11                        @ RTE/Device/TM4C123GH6PM/system_TM4C123.c:478:11
	b	.LBB1_29
.LBB1_20:
	.loc	2 0 11 is_stmt 0                @ RTE/Device/TM4C123GH6PM/system_TM4C123.c:0:11
	movw	r0, #4608
	movt	r0, #122
	.loc	2 480 18 is_stmt 1              @ RTE/Device/TM4C123GH6PM/system_TM4C123.c:480:18
	str	r0, [sp, #8]
	.loc	2 481 11                        @ RTE/Device/TM4C123GH6PM/system_TM4C123.c:481:11
	b	.LBB1_29
.LBB1_21:
	.loc	2 0 11 is_stmt 0                @ RTE/Device/TM4C123GH6PM/system_TM4C123.c:0:11
	mov.w	r0, #8192000
	.loc	2 483 18 is_stmt 1              @ RTE/Device/TM4C123GH6PM/system_TM4C123.c:483:18
	str	r0, [sp, #8]
	.loc	2 484 11                        @ RTE/Device/TM4C123GH6PM/system_TM4C123.c:484:11
	b	.LBB1_29
.LBB1_22:
	.loc	2 0 11 is_stmt 0                @ RTE/Device/TM4C123GH6PM/system_TM4C123.c:0:11
	movw	r0, #38528
	movt	r0, #152
	.loc	2 486 18 is_stmt 1              @ RTE/Device/TM4C123GH6PM/system_TM4C123.c:486:18
	str	r0, [sp, #8]
	.loc	2 487 11                        @ RTE/Device/TM4C123GH6PM/system_TM4C123.c:487:11
	b	.LBB1_29
.LBB1_23:
	.loc	2 0 11 is_stmt 0                @ RTE/Device/TM4C123GH6PM/system_TM4C123.c:0:11
	movw	r0, #6912
	movt	r0, #183
	.loc	2 489 18 is_stmt 1              @ RTE/Device/TM4C123GH6PM/system_TM4C123.c:489:18
	str	r0, [sp, #8]
	.loc	2 490 11                        @ RTE/Device/TM4C123GH6PM/system_TM4C123.c:490:11
	b	.LBB1_29
.LBB1_24:
	.loc	2 0 11 is_stmt 0                @ RTE/Device/TM4C123GH6PM/system_TM4C123.c:0:11
	movw	r0, #32768
	movt	r0, #187
	.loc	2 492 18 is_stmt 1              @ RTE/Device/TM4C123GH6PM/system_TM4C123.c:492:18
	str	r0, [sp, #8]
	.loc	2 493 11                        @ RTE/Device/TM4C123GH6PM/system_TM4C123.c:493:11
	b	.LBB1_29
.LBB1_25:
	.loc	2 0 11 is_stmt 0                @ RTE/Device/TM4C123GH6PM/system_TM4C123.c:0:11
	movw	r0, #59584
	movt	r0, #206
	.loc	2 495 18 is_stmt 1              @ RTE/Device/TM4C123GH6PM/system_TM4C123.c:495:18
	str	r0, [sp, #8]
	.loc	2 496 11                        @ RTE/Device/TM4C123GH6PM/system_TM4C123.c:496:11
	b	.LBB1_29
.LBB1_26:
	.loc	2 0 11 is_stmt 0                @ RTE/Device/TM4C123GH6PM/system_TM4C123.c:0:11
	movw	r0, #31332
	movt	r0, #218
	.loc	2 498 18 is_stmt 1              @ RTE/Device/TM4C123GH6PM/system_TM4C123.c:498:18
	str	r0, [sp, #8]
	.loc	2 499 11                        @ RTE/Device/TM4C123GH6PM/system_TM4C123.c:499:11
	b	.LBB1_29
.LBB1_27:
	.loc	2 0 11 is_stmt 0                @ RTE/Device/TM4C123GH6PM/system_TM4C123.c:0:11
	movw	r0, #9216
	movt	r0, #244
	.loc	2 501 18 is_stmt 1              @ RTE/Device/TM4C123GH6PM/system_TM4C123.c:501:18
	str	r0, [sp, #8]
	.loc	2 502 11                        @ RTE/Device/TM4C123GH6PM/system_TM4C123.c:502:11
	b	.LBB1_29
.LBB1_28:
	.loc	2 0 11 is_stmt 0                @ RTE/Device/TM4C123GH6PM/system_TM4C123.c:0:11
	mov.w	r0, #16384000
	.loc	2 504 18 is_stmt 1              @ RTE/Device/TM4C123GH6PM/system_TM4C123.c:504:18
	str	r0, [sp, #8]
	.loc	2 505 11                        @ RTE/Device/TM4C123GH6PM/system_TM4C123.c:505:11
	b	.LBB1_29
.Ltmp23:
.LBB1_29:
	.loc	2 507 7                         @ RTE/Device/TM4C123GH6PM/system_TM4C123.c:507:7
	b	.LBB1_33
.LBB1_30:
	.loc	2 0 7 is_stmt 0                 @ RTE/Device/TM4C123GH6PM/system_TM4C123.c:0:7
	movw	r0, #9216
	movt	r0, #244
	.loc	2 509 14 is_stmt 1              @ RTE/Device/TM4C123GH6PM/system_TM4C123.c:509:14
	str	r0, [sp, #8]
	.loc	2 510 7                         @ RTE/Device/TM4C123GH6PM/system_TM4C123.c:510:7
	b	.LBB1_33
.LBB1_31:
	.loc	2 0 7 is_stmt 0                 @ RTE/Device/TM4C123GH6PM/system_TM4C123.c:0:7
	movw	r0, #2304
	movt	r0, #61
	.loc	2 512 14 is_stmt 1              @ RTE/Device/TM4C123GH6PM/system_TM4C123.c:512:14
	str	r0, [sp, #8]
	.loc	2 513 7                         @ RTE/Device/TM4C123GH6PM/system_TM4C123.c:513:7
	b	.LBB1_33
.LBB1_32:
	.loc	2 0 7 is_stmt 0                 @ RTE/Device/TM4C123GH6PM/system_TM4C123.c:0:7
	movw	r0, #30000
	.loc	2 515 14 is_stmt 1              @ RTE/Device/TM4C123GH6PM/system_TM4C123.c:515:14
	str	r0, [sp, #8]
	.loc	2 516 7                         @ RTE/Device/TM4C123GH6PM/system_TM4C123.c:516:7
	b	.LBB1_33
.Ltmp24:
.LBB1_33:
	.loc	2 519 10                        @ RTE/Device/TM4C123GH6PM/system_TM4C123.c:519:10
	ldr	r0, [sp, #8]
	.loc	2 519 3 epilogue_begin is_stmt 0 @ RTE/Device/TM4C123GH6PM/system_TM4C123.c:519:3
	add	sp, #20
	bx	lr
.Ltmp25:
.Lfunc_end1:
	.size	getOscClk, .Lfunc_end1-getOscClk
	.cfi_endproc
	.cantunwind
	.fnend
                                        @ -- End function
	.section	.text.SystemInit,"ax",%progbits
	.hidden	SystemInit                      @ -- Begin function SystemInit
	.globl	SystemInit
	.p2align	2
	.type	SystemInit,%function
	.code	16                              @ @SystemInit
	.thumb_func
SystemInit:
.Lfunc_begin2:
	.loc	2 575 0 is_stmt 1               @ RTE/Device/TM4C123GH6PM/system_TM4C123.c:575:0
	.fnstart
	.cfi_startproc
@ %bb.0:
	.pad	#4
	sub	sp, #4
	.cfi_def_cfa_offset 4
	movw	r1, #60808
	movt	r1, #57344
.Ltmp26:
	.loc	2 582 16 prologue_end           @ RTE/Device/TM4C123GH6PM/system_TM4C123.c:582:16
	ldr	r0, [r1]
	orr	r0, r0, #15728640
	str	r0, [r1]
	movw	r1, #57456
	movt	r1, #16399
	movw	r0, #10256
	movt	r0, #1920
	.loc	2 587 18                        @ RTE/Device/TM4C123GH6PM/system_TM4C123.c:587:18
	str	r0, [r1]
	movw	r2, #57440
	movt	r2, #16399
	movw	r0, #15057
	movt	r0, #1934
	.loc	2 588 18                        @ RTE/Device/TM4C123GH6PM/system_TM4C123.c:588:18
	str	r0, [r2]
	movw	r0, #11586
	movt	r0, #414
	.loc	2 590 18                        @ RTE/Device/TM4C123GH6PM/system_TM4C123.c:590:18
	str	r0, [r2]
	movw	r0, #10240
	movt	r0, #384
	.loc	2 591 18                        @ RTE/Device/TM4C123GH6PM/system_TM4C123.c:591:18
	str	r0, [r1]
	movs	r0, #0
.Ltmp27:
	.loc	2 592 12                        @ RTE/Device/TM4C123GH6PM/system_TM4C123.c:592:12
	str	r0, [sp]
	.loc	2 592 10 is_stmt 0              @ RTE/Device/TM4C123GH6PM/system_TM4C123.c:592:10
	b	.LBB2_1
.LBB2_1:                                @ =>This Inner Loop Header: Depth=1
.Ltmp28:
	.loc	2 592 17                        @ RTE/Device/TM4C123GH6PM/system_TM4C123.c:592:17
	ldr	r0, [sp]
.Ltmp29:
	.loc	2 592 5                         @ RTE/Device/TM4C123GH6PM/system_TM4C123.c:592:5
	lsrs	r0, r0, #3
	cmp	r0, #124
	bhi	.LBB2_4
	b	.LBB2_2
.LBB2_2:                                @   in Loop: Header=BB2_1 Depth=1
	b	.LBB2_3
.LBB2_3:                                @   in Loop: Header=BB2_1 Depth=1
.Ltmp30:
	.loc	2 592 28                        @ RTE/Device/TM4C123GH6PM/system_TM4C123.c:592:28
	ldr	r0, [sp]
	adds	r0, #1
	str	r0, [sp]
	.loc	2 592 5                         @ RTE/Device/TM4C123GH6PM/system_TM4C123.c:592:5
	b	.LBB2_1
.Ltmp31:
.LBB2_4:
	.loc	2 0 5                           @ RTE/Device/TM4C123GH6PM/system_TM4C123.c:0:5
	movw	r1, #57440
	movt	r1, #16399
	movw	r0, #3394
	movt	r0, #414
	.loc	2 594 18 is_stmt 1              @ RTE/Device/TM4C123GH6PM/system_TM4C123.c:594:18
	str	r0, [r1]
	movw	r1, #57456
	movt	r1, #16399
	movw	r0, #2048
	movt	r0, #384
	.loc	2 595 18                        @ RTE/Device/TM4C123GH6PM/system_TM4C123.c:595:18
	str	r0, [r1]
	movs	r0, #0
.Ltmp32:
	.loc	2 596 12                        @ RTE/Device/TM4C123GH6PM/system_TM4C123.c:596:12
	str	r0, [sp]
	.loc	2 596 10 is_stmt 0              @ RTE/Device/TM4C123GH6PM/system_TM4C123.c:596:10
	b	.LBB2_5
.LBB2_5:                                @ =>This Inner Loop Header: Depth=1
.Ltmp33:
	.loc	2 596 17                        @ RTE/Device/TM4C123GH6PM/system_TM4C123.c:596:17
	ldr	r0, [sp]
.Ltmp34:
	.loc	2 596 5                         @ RTE/Device/TM4C123GH6PM/system_TM4C123.c:596:5
	lsrs	r0, r0, #3
	cmp	r0, #124
	bhi	.LBB2_8
	b	.LBB2_6
.LBB2_6:                                @   in Loop: Header=BB2_5 Depth=1
	b	.LBB2_7
.LBB2_7:                                @   in Loop: Header=BB2_5 Depth=1
.Ltmp35:
	.loc	2 596 28                        @ RTE/Device/TM4C123GH6PM/system_TM4C123.c:596:28
	ldr	r0, [sp]
	adds	r0, #1
	str	r0, [sp]
	.loc	2 596 5                         @ RTE/Device/TM4C123GH6PM/system_TM4C123.c:596:5
	b	.LBB2_5
.Ltmp36:
.LBB2_8:
	.loc	2 0 5                           @ RTE/Device/TM4C123GH6PM/system_TM4C123.c:0:5
	movw	r1, #57440
	movt	r1, #16399
	movw	r0, #3394
	movt	r0, #478
	.loc	2 598 18 is_stmt 1              @ RTE/Device/TM4C123GH6PM/system_TM4C123.c:598:18
	str	r0, [r1]
.Ltmp37:
	.loc	2 602 7                         @ RTE/Device/TM4C123GH6PM/system_TM4C123.c:602:7
	b	.LBB2_9
.LBB2_9:                                @ =>This Inner Loop Header: Depth=1
	.loc	2 0 7 is_stmt 0                 @ RTE/Device/TM4C123GH6PM/system_TM4C123.c:0:7
	movw	r0, #57424
	movt	r0, #16399
	.loc	2 602 23                        @ RTE/Device/TM4C123GH6PM/system_TM4C123.c:602:23
	ldr	r0, [r0]
	.loc	2 602 27                        @ RTE/Device/TM4C123GH6PM/system_TM4C123.c:602:27
	and	r0, r0, #64
	.loc	2 602 7                         @ RTE/Device/TM4C123GH6PM/system_TM4C123.c:602:7
	cmp	r0, #64
	beq	.LBB2_11
	b	.LBB2_10
.LBB2_10:                               @   in Loop: Header=BB2_9 Depth=1
	b	.LBB2_9
.Ltmp38:
.LBB2_11:
	.loc	2 0 7                           @ RTE/Device/TM4C123GH6PM/system_TM4C123.c:0:7
	movw	r1, #57440
	movt	r1, #16399
	movw	r0, #1346
	movt	r0, #478
	.loc	2 605 18 is_stmt 1              @ RTE/Device/TM4C123GH6PM/system_TM4C123.c:605:18
	str	r0, [r1]
	movw	r1, #57456
	movt	r1, #16399
	mov.w	r0, #25165824
	.loc	2 606 18                        @ RTE/Device/TM4C123GH6PM/system_TM4C123.c:606:18
	str	r0, [r1]
	movs	r0, #0
.Ltmp39:
	.loc	2 607 12                        @ RTE/Device/TM4C123GH6PM/system_TM4C123.c:607:12
	str	r0, [sp]
	.loc	2 607 10 is_stmt 0              @ RTE/Device/TM4C123GH6PM/system_TM4C123.c:607:10
	b	.LBB2_12
.LBB2_12:                               @ =>This Inner Loop Header: Depth=1
.Ltmp40:
	.loc	2 607 17                        @ RTE/Device/TM4C123GH6PM/system_TM4C123.c:607:17
	ldr	r0, [sp]
	movw	r1, #9999
.Ltmp41:
	.loc	2 607 5                         @ RTE/Device/TM4C123GH6PM/system_TM4C123.c:607:5
	cmp	r0, r1
	bhi	.LBB2_15
	b	.LBB2_13
.LBB2_13:                               @   in Loop: Header=BB2_12 Depth=1
	b	.LBB2_14
.LBB2_14:                               @   in Loop: Header=BB2_12 Depth=1
.Ltmp42:
	.loc	2 607 29                        @ RTE/Device/TM4C123GH6PM/system_TM4C123.c:607:29
	ldr	r0, [sp]
	adds	r0, #1
	str	r0, [sp]
	.loc	2 607 5                         @ RTE/Device/TM4C123GH6PM/system_TM4C123.c:607:5
	b	.LBB2_12
.Ltmp43:
.LBB2_15:
	.loc	2 610 1 epilogue_begin is_stmt 1 @ RTE/Device/TM4C123GH6PM/system_TM4C123.c:610:1
	add	sp, #4
	bx	lr
.Ltmp44:
.Lfunc_end2:
	.size	SystemInit, .Lfunc_end2-SystemInit
	.cfi_endproc
	.cantunwind
	.fnend
                                        @ -- End function
	.hidden	SystemCoreClock                 @ @SystemCoreClock
	.type	SystemCoreClock,%object
	.section	.data.SystemCoreClock,"aw",%progbits
	.globl	SystemCoreClock
	.p2align	2, 0x0
SystemCoreClock:
	.long	50000000                        @ 0x2faf080
	.size	SystemCoreClock, 4

	.section	".note.GNU-stack","",%progbits
	.eabi_attribute	30, 6	@ Tag_ABI_optimization_goals
	.ARM_attribute	16, 1	@ Tag_AV_eba